target datalayout = "e-m:e-p270:32:32-p271:32:32-p272:64:64-i64:64-i128:128-f80:128-n8:16:32:64-S128"
target triple = "x86_64-pc-linux-gnu"

%class.PLAB = type { [32 x i8], i64, ptr, ptr, ptr, ptr, i64, i64, i64, [32 x i8] }

@_ZN8Universe14_collectedHeapE = external global ptr, align 8

; Function Attrs: mustprogress nounwind uwtable
define linkonce_odr hidden noundef i64 @_Z13pointer_deltaPVKvS0_m(ptr noundef %0, ptr noundef %1, i64 noundef %2) #1 comdat {
  %4 = alloca ptr, align 8
  %5 = alloca ptr, align 8
  %6 = alloca i64, align 8
  store ptr %0, ptr %4, align 8
  store ptr %1, ptr %5, align 8
  store i64 %2, ptr %6, align 8
  %7 = load ptr, ptr %4, align 8
  %8 = ptrtoint ptr %7 to i64
  %9 = load ptr, ptr %5, align 8
  %10 = ptrtoint ptr %9 to i64
  %11 = sub i64 %8, %10
  %12 = load i64, ptr %6, align 8
  %13 = udiv i64 %11, %12
  ret i64 %13
}

; Function Attrs: mustprogress nounwind uwtable
define linkonce_odr hidden noundef i64 @_Z13pointer_deltaPKP12HeapWordImplS2_(ptr noundef %0, ptr noundef %1) #1 comdat {
  %3 = alloca ptr, align 8
  %4 = alloca ptr, align 8
  store ptr %0, ptr %3, align 8
  store ptr %1, ptr %4, align 8
  %5 = load ptr, ptr %3, align 8
  %6 = load ptr, ptr %4, align 8
  %7 = call noundef i64 @_Z13pointer_deltaPVKvS0_m(ptr noundef %5, ptr noundef %6, i64 noundef 8)
  ret i64 %7
}

; Function Attrs: mustprogress nounwind uwtable
define linkonce_odr hidden noundef i64 @_ZN4PLAB10invalidateEv(ptr noundef nonnull align 8 dereferenceable(128) %0) #1 comdat align 2 {
  %2 = alloca ptr, align 8
  %3 = alloca i64, align 8
  store ptr %0, ptr %2, align 8
  %4 = load ptr, ptr %2, align 8
  %5 = getelementptr inbounds %class.PLAB, ptr %4, i32 0, i32 5
  %6 = load ptr, ptr %5, align 8
  %7 = getelementptr inbounds %class.PLAB, ptr %4, i32 0, i32 4
  store ptr %6, ptr %7, align 8
  %8 = getelementptr inbounds %class.PLAB, ptr %4, i32 0, i32 4
  %9 = load ptr, ptr %8, align 8
  %10 = getelementptr inbounds %class.PLAB, ptr %4, i32 0, i32 3
  %11 = load ptr, ptr %10, align 8
  %12 = call noundef i64 @_Z13pointer_deltaPKP12HeapWordImplS2_(ptr noundef %9, ptr noundef %11)
  store i64 %12, ptr %3, align 8
  %13 = getelementptr inbounds %class.PLAB, ptr %4, i32 0, i32 4
  %14 = load ptr, ptr %13, align 8
  %15 = getelementptr inbounds %class.PLAB, ptr %4, i32 0, i32 3
  store ptr %14, ptr %15, align 8
  %16 = getelementptr inbounds %class.PLAB, ptr %4, i32 0, i32 4
  %17 = load ptr, ptr %16, align 8
  %18 = getelementptr inbounds %class.PLAB, ptr %4, i32 0, i32 2
  store ptr %17, ptr %18, align 8
  %19 = load i64, ptr %3, align 8
  ret i64 %19
}

; Function Attrs: mustprogress nounwind uwtable
define linkonce_odr hidden noundef ptr @_ZN8Universe4heapEv() #1 comdat align 2 {
  %1 = load ptr, ptr @_ZN8Universe14_collectedHeapE, align 8
  ret ptr %1
}

; Function Attrs: mustprogress nounwind uwtable
define hidden noundef i64 @_ZN4PLAB15retire_internalEv(ptr noundef nonnull align 8 dereferenceable(128) %0) #1 align 2 {
  %2 = alloca ptr, align 8
  %3 = alloca i64, align 8
  store ptr %0, ptr %2, align 8
  %4 = load ptr, ptr %2, align 8
  store i64 0, ptr %3, align 8
  %5 = getelementptr inbounds %class.PLAB, ptr %4, i32 0, i32 3
  %6 = load ptr, ptr %5, align 8
  %7 = getelementptr inbounds %class.PLAB, ptr %4, i32 0, i32 5
  %8 = load ptr, ptr %7, align 8
  %9 = icmp ult ptr %6, %8
  br i1 %9, label %10, label %22

10:                                               ; preds = %1
  %11 = call noundef ptr @_ZN8Universe4heapEv()
  %12 = getelementptr inbounds %class.PLAB, ptr %4, i32 0, i32 3
  %13 = load ptr, ptr %12, align 8
  %14 = getelementptr inbounds %class.PLAB, ptr %4, i32 0, i32 5
  %15 = load ptr, ptr %14, align 8
  %16 = load ptr, ptr %11, align 8
  %17 = getelementptr inbounds ptr, ptr %16, i64 18
  %18 = load ptr, ptr %17, align 8
  call void %18(ptr noundef nonnull align 8 dereferenceable(104) %11, ptr noundef %13, ptr noundef %15, i1 noundef zeroext true)
  %19 = call noundef i64 @_ZN4PLAB10invalidateEv(ptr noundef nonnull align 8 dereferenceable(128) %4)
  %20 = load i64, ptr %3, align 8
  %21 = add i64 %20, %19
  store i64 %21, ptr %3, align 8
  br label %22

22:                                               ; preds = %10, %1
  %23 = load i64, ptr %3, align 8
  ret i64 %23
}