; Function Attrs: mustprogress nounwind uwtable
define hidden noundef i64 @_ZN4PLAB15retire_internalEv(ptr nocapture noundef nonnull align 8 dereferenceable(128) %0) local_unnamed_addr #1 align 2 {
  %2 = getelementptr inbounds i8, ptr %0, i64 48
  %3 = load ptr, ptr %2, align 8
  %4 = getelementptr inbounds i8, ptr %0, i64 64
  %5 = load ptr, ptr %4, align 8
  %6 = icmp ult ptr %3, %5
  br i1 %6, label %7, label %20

7:                                                ; preds = %1
  %8 = load ptr, ptr @_ZN8Universe14_collectedHeapE, align 8
  %9 = load ptr, ptr %8, align 8
  %10 = getelementptr inbounds i8, ptr %9, i64 144
  %11 = load ptr, ptr %10, align 8
  tail call void %11(ptr noundef nonnull align 8 dereferenceable(104) %8, ptr noundef %3, ptr noundef nonnull %5, i1 noundef zeroext true) #8
  %12 = load ptr, ptr %4, align 8
  %13 = getelementptr inbounds i8, ptr %0, i64 56
  store ptr %12, ptr %13, align 8
  %14 = load ptr, ptr %2, align 8
  %15 = ptrtoint ptr %12 to i64
  %16 = ptrtoint ptr %14 to i64
  %17 = sub i64 %15, %16
  %18 = lshr i64 %17, 3
  store ptr %12, ptr %2, align 8
  %19 = getelementptr inbounds i8, ptr %0, i64 40
  store ptr %12, ptr %19, align 8
  br label %20

20:                                               ; preds = %7, %1
  %.0 = phi i64 [ %18, %7 ], [ 0, %1 ]
  ret i64 %.0
}